#include <math.h>
#include <stdio.h>
#include <stdlib.h>
#include <string.h>

int main(){
	int n,k,i,s[1000],z[1000],j,g=0;
	scanf("%d%d",&n,&k);
	for(i=0;i<n;i++){
		scanf("%d",&s[i]);
	}
	for(i=0;i<n;i++){
		z[i]=s[i];
	}
	for(i=0;i<n;i++){
		for(j=0;j<n;j++){
			if(s[i]!=z[j]&&s[i]+z[j]==k){
			g+=1;	
			}
		
	}
	}
	if(g>0){
		printf("yes");
	}
	else{
		printf("no");
	}
	return 0;
}

