; ModuleID = 'source-C-CXX/2/3084.c'
source_filename = "source-C-CXX/2/3084.c"
target datalayout = "e-m:e-p270:32:32-p271:32:32-p272:64:64-i64:64-f80:128-n8:16:32:64-S128"
target triple = "x86_64-pc-linux-gnu"

@.str = private unnamed_addr constant [5 x i8] c"%d%d\00", align 1
@.str.1 = private unnamed_addr constant [3 x i8] c"%d\00", align 1
@.str.2 = private unnamed_addr constant [4 x i8] c"yes\00", align 1
@.str.3 = private unnamed_addr constant [3 x i8] c"no\00", align 1

; Function Attrs: nofree nounwind sspstrong uwtable
define dso_local i32 @main() local_unnamed_addr #0 {
  %1 = alloca i32, align 4
  %2 = alloca i32, align 4
  %3 = alloca [1000 x i32], align 16
  %4 = bitcast [1000 x i32]* %3 to i8*
  %5 = alloca [1000 x i32], align 16
  %6 = bitcast [1000 x i32]* %5 to i8*
  %7 = bitcast i32* %1 to i8*
  call void @llvm.lifetime.start.p0i8(i64 4, i8* nonnull %7) #5
  %8 = bitcast i32* %2 to i8*
  call void @llvm.lifetime.start.p0i8(i64 4, i8* nonnull %8) #5
  call void @llvm.lifetime.start.p0i8(i64 4000, i8* nonnull %4) #5
  call void @llvm.lifetime.start.p0i8(i64 4000, i8* nonnull %6) #5
  %9 = call i32 (i8*, ...) @__isoc99_scanf(i8* getelementptr inbounds ([5 x i8], [5 x i8]* @.str, i64 0, i64 0), i32* nonnull %1, i32* nonnull %2)
  %10 = load i32, i32* %1, align 4, !tbaa !5
  %11 = icmp sgt i32 %10, 0
  br i1 %11, label %14, label %94

12:                                               ; preds = %14
  %13 = icmp sgt i32 %19, 0
  br i1 %13, label %22, label %94

14:                                               ; preds = %0, %14
  %15 = phi i64 [ %18, %14 ], [ 0, %0 ]
  %16 = getelementptr inbounds [1000 x i32], [1000 x i32]* %3, i64 0, i64 %15
  %17 = call i32 (i8*, ...) @__isoc99_scanf(i8* getelementptr inbounds ([3 x i8], [3 x i8]* @.str.1, i64 0, i64 0), i32* nonnull %16)
  %18 = add nuw nsw i64 %15, 1
  %19 = load i32, i32* %1, align 4, !tbaa !5
  %20 = sext i32 %19 to i64
  %21 = icmp slt i64 %18, %20
  br i1 %21, label %14, label %12, !llvm.loop !9

22:                                               ; preds = %12
  %23 = zext i32 %19 to i64
  %24 = shl nuw nsw i64 %23, 2
  call void @llvm.memcpy.p0i8.p0i8.i64(i8* nonnull align 16 %6, i8* nonnull align 16 %4, i64 %24, i1 false)
  %25 = load i32, i32* %2, align 4
  %26 = zext i32 %19 to i64
  %27 = icmp ult i32 %19, 8
  %28 = and i64 %26, 4294967288
  %29 = insertelement <4 x i32> poison, i32 %25, i32 0
  %30 = shufflevector <4 x i32> %29, <4 x i32> poison, <4 x i32> zeroinitializer
  %31 = insertelement <4 x i32> poison, i32 %25, i32 0
  %32 = shufflevector <4 x i32> %31, <4 x i32> poison, <4 x i32> zeroinitializer
  %33 = icmp eq i64 %28, %26
  br label %34

34:                                               ; preds = %22, %88
  %35 = phi i64 [ 0, %22 ], [ %90, %88 ]
  %36 = phi i32 [ 0, %22 ], [ %89, %88 ]
  %37 = getelementptr inbounds [1000 x i32], [1000 x i32]* %3, i64 0, i64 %35
  %38 = load i32, i32* %37, align 4, !tbaa !5
  br i1 %27, label %72, label %39

39:                                               ; preds = %34
  %40 = insertelement <4 x i32> <i32 poison, i32 0, i32 0, i32 0>, i32 %36, i32 0
  %41 = insertelement <4 x i32> poison, i32 %38, i32 0
  %42 = shufflevector <4 x i32> %41, <4 x i32> poison, <4 x i32> zeroinitializer
  %43 = insertelement <4 x i32> poison, i32 %38, i32 0
  %44 = shufflevector <4 x i32> %43, <4 x i32> poison, <4 x i32> zeroinitializer
  br label %45

45:                                               ; preds = %45, %39
  %46 = phi i64 [ 0, %39 ], [ %67, %45 ]
  %47 = phi <4 x i32> [ %40, %39 ], [ %65, %45 ]
  %48 = phi <4 x i32> [ zeroinitializer, %39 ], [ %66, %45 ]
  %49 = getelementptr inbounds [1000 x i32], [1000 x i32]* %5, i64 0, i64 %46
  %50 = bitcast i32* %49 to <4 x i32>*
  %51 = load <4 x i32>, <4 x i32>* %50, align 16, !tbaa !5
  %52 = getelementptr inbounds i32, i32* %49, i64 4
  %53 = bitcast i32* %52 to <4 x i32>*
  %54 = load <4 x i32>, <4 x i32>* %53, align 16, !tbaa !5
  %55 = icmp ne <4 x i32> %42, %51
  %56 = icmp ne <4 x i32> %44, %54
  %57 = add nsw <4 x i32> %51, %42
  %58 = add nsw <4 x i32> %54, %44
  %59 = icmp eq <4 x i32> %57, %30
  %60 = icmp eq <4 x i32> %58, %32
  %61 = select <4 x i1> %55, <4 x i1> %59, <4 x i1> zeroinitializer
  %62 = select <4 x i1> %56, <4 x i1> %60, <4 x i1> zeroinitializer
  %63 = zext <4 x i1> %61 to <4 x i32>
  %64 = zext <4 x i1> %62 to <4 x i32>
  %65 = add <4 x i32> %47, %63
  %66 = add <4 x i32> %48, %64
  %67 = add nuw i64 %46, 8
  %68 = icmp eq i64 %67, %28
  br i1 %68, label %69, label %45, !llvm.loop !11

69:                                               ; preds = %45
  %70 = add <4 x i32> %66, %65
  %71 = call i32 @llvm.vector.reduce.add.v4i32(<4 x i32> %70)
  br i1 %33, label %88, label %72

72:                                               ; preds = %34, %69
  %73 = phi i64 [ 0, %34 ], [ %28, %69 ]
  %74 = phi i32 [ %36, %34 ], [ %71, %69 ]
  br label %75

75:                                               ; preds = %72, %75
  %76 = phi i64 [ %86, %75 ], [ %73, %72 ]
  %77 = phi i32 [ %85, %75 ], [ %74, %72 ]
  %78 = getelementptr inbounds [1000 x i32], [1000 x i32]* %5, i64 0, i64 %76
  %79 = load i32, i32* %78, align 4, !tbaa !5
  %80 = icmp ne i32 %38, %79
  %81 = add nsw i32 %79, %38
  %82 = icmp eq i32 %81, %25
  %83 = select i1 %80, i1 %82, i1 false
  %84 = zext i1 %83 to i32
  %85 = add nsw i32 %77, %84
  %86 = add nuw nsw i64 %76, 1
  %87 = icmp eq i64 %86, %26
  br i1 %87, label %88, label %75, !llvm.loop !13

88:                                               ; preds = %75, %69
  %89 = phi i32 [ %71, %69 ], [ %85, %75 ]
  %90 = add nuw nsw i64 %35, 1
  %91 = icmp eq i64 %90, %26
  br i1 %91, label %92, label %34, !llvm.loop !15

92:                                               ; preds = %88
  %93 = icmp sgt i32 %89, 0
  br i1 %93, label %95, label %94

94:                                               ; preds = %0, %12, %92
  br label %95

95:                                               ; preds = %92, %94
  %96 = phi i8* [ getelementptr inbounds ([3 x i8], [3 x i8]* @.str.3, i64 0, i64 0), %94 ], [ getelementptr inbounds ([4 x i8], [4 x i8]* @.str.2, i64 0, i64 0), %92 ]
  %97 = call i32 (i8*, ...) @printf(i8* nonnull dereferenceable(1) %96)
  call void @llvm.lifetime.end.p0i8(i64 4000, i8* nonnull %6) #5
  call void @llvm.lifetime.end.p0i8(i64 4000, i8* nonnull %4) #5
  call void @llvm.lifetime.end.p0i8(i64 4, i8* nonnull %8) #5
  call void @llvm.lifetime.end.p0i8(i64 4, i8* nonnull %7) #5
  ret i32 0
}

; Function Attrs: argmemonly mustprogress nofree nosync nounwind willreturn
declare void @llvm.lifetime.start.p0i8(i64 immarg, i8* nocapture) #1

; Function Attrs: nofree nounwind
declare noundef i32 @__isoc99_scanf(i8* nocapture noundef readonly, ...) local_unnamed_addr #2

; Function Attrs: nofree nounwind
declare noundef i32 @printf(i8* nocapture noundef readonly, ...) local_unnamed_addr #2

; Function Attrs: argmemonly mustprogress nofree nosync nounwind willreturn
declare void @llvm.lifetime.end.p0i8(i64 immarg, i8* nocapture) #1

; Function Attrs: argmemonly nofree nounwind willreturn
declare void @llvm.memcpy.p0i8.p0i8.i64(i8* noalias nocapture writeonly, i8* noalias nocapture readonly, i64, i1 immarg) #3

; Function Attrs: nofree nosync nounwind readnone willreturn
declare i32 @llvm.vector.reduce.add.v4i32(<4 x i32>) #4


!llvm.module.flags = !{!0, !1, !2, !3}
!llvm.ident = !{!4}

!0 = !{i32 1, !"wchar_size", i32 4}
!1 = !{i32 7, !"PIC Level", i32 2}
!2 = !{i32 7, !"PIE Level", i32 2}
!3 = !{i32 7, !"uwtable", i32 1}
!4 = !{!"clang version 13.0.0"}
!5 = !{!6, !6, i64 0}
!6 = !{!"int", !7, i64 0}
!7 = !{!"omnipotent char", !8, i64 0}
!8 = !{!"Simple C/C++ TBAA"}
!9 = distinct !{!9, !10}
!10 = !{!"llvm.loop.mustprogress"}
!11 = distinct !{!11, !10, !12}
!12 = !{!"llvm.loop.isvectorized", i32 1}
!13 = distinct !{!13, !10, !14, !12}
!14 = !{!"llvm.loop.unroll.runtime.disable"}
!15 = distinct !{!15, !10}
